target datalayout = "e-m:e-p270:32:32-p271:32:32-p272:64:64-i64:64-i128:128-f80:128-n8:16:32:64-S128"
target triple = "x86_64-pc-linux-gnu"

%struct.cbs_st = type { ptr, i64 }

@_ZZL23TestGetOptionalASN1BoolvE5kTrue = internal constant [5 x i8] c"\0A\03\01\01\FF", align 1
@_ZZL23TestGetOptionalASN1BoolvE6kFalse = internal constant [5 x i8] c"\0A\03\01\01\00", align 1
@_ZZL23TestGetOptionalASN1BoolvE8kInvalid = internal constant [5 x i8] c"\0A\03\01\01\01", align 1

; Function Attrs: mustprogress uwtable
define internal noundef zeroext i1 @_ZL23TestGetOptionalASN1Boolv() #2 {
  %1 = alloca i1, align 1
  %2 = alloca %struct.cbs_st, align 8
  %3 = alloca i32, align 4
  %4 = alloca i32, align 4
  call void @llvm.lifetime.start.p0(i64 16, ptr %2) #15
  call void @CBS_init(ptr noundef %2, ptr noundef null, i64 noundef 0)
  call void @llvm.lifetime.start.p0(i64 4, ptr %3) #15
  store i32 2, ptr %3, align 4, !tbaa !11
  %5 = call i32 @CBS_get_optional_asn1_bool(ptr noundef %2, ptr noundef %3, i32 noundef 10, i32 noundef 0)
  %6 = icmp ne i32 %5, 0
  br i1 %6, label %7, label %10

7:                                                ; preds = %0
  %8 = load i32, ptr %3, align 4, !tbaa !11
  %9 = icmp ne i32 %8, 0
  br i1 %9, label %10, label %11

10:                                               ; preds = %7, %0
  store i1 false, ptr %1, align 1
  store i32 1, ptr %4, align 4
  br label %30

11:                                               ; preds = %7
  call void @CBS_init(ptr noundef %2, ptr noundef @_ZZL23TestGetOptionalASN1BoolvE5kTrue, i64 noundef 5)
  store i32 2, ptr %3, align 4, !tbaa !11
  %12 = call i32 @CBS_get_optional_asn1_bool(ptr noundef %2, ptr noundef %3, i32 noundef 10, i32 noundef 0)
  %13 = icmp ne i32 %12, 0
  br i1 %13, label %14, label %17

14:                                               ; preds = %11
  %15 = load i32, ptr %3, align 4, !tbaa !11
  %16 = icmp ne i32 %15, 1
  br i1 %16, label %17, label %18

17:                                               ; preds = %14, %11
  store i1 false, ptr %1, align 1
  store i32 1, ptr %4, align 4
  br label %30

18:                                               ; preds = %14
  call void @CBS_init(ptr noundef %2, ptr noundef @_ZZL23TestGetOptionalASN1BoolvE6kFalse, i64 noundef 5)
  store i32 2, ptr %3, align 4, !tbaa !11
  %19 = call i32 @CBS_get_optional_asn1_bool(ptr noundef %2, ptr noundef %3, i32 noundef 10, i32 noundef 1)
  %20 = icmp ne i32 %19, 0
  br i1 %20, label %21, label %24

21:                                               ; preds = %18
  %22 = load i32, ptr %3, align 4, !tbaa !11
  %23 = icmp ne i32 %22, 0
  br i1 %23, label %24, label %25

24:                                               ; preds = %21, %18
  store i1 false, ptr %1, align 1
  store i32 1, ptr %4, align 4
  br label %30

25:                                               ; preds = %21
  call void @CBS_init(ptr noundef %2, ptr noundef @_ZZL23TestGetOptionalASN1BoolvE8kInvalid, i64 noundef 5)
  %26 = call i32 @CBS_get_optional_asn1_bool(ptr noundef %2, ptr noundef %3, i32 noundef 10, i32 noundef 1)
  %27 = icmp ne i32 %26, 0
  br i1 %27, label %28, label %29

28:                                               ; preds = %25
  store i1 false, ptr %1, align 1
  store i32 1, ptr %4, align 4
  br label %30

29:                                               ; preds = %25
  store i1 true, ptr %1, align 1
  store i32 1, ptr %4, align 4
  br label %30

30:                                               ; preds = %29, %28, %24, %17, %10
  call void @llvm.lifetime.end.p0(i64 4, ptr %3) #15
  call void @llvm.lifetime.end.p0(i64 16, ptr %2) #15
  %31 = load i1, ptr %1, align 1
  ret i1 %31
}