; Function Attrs: mustprogress norecurse uwtable
define internal fastcc noundef zeroext i1 @_ZL23TestGetOptionalASN1Boolv() unnamed_addr #0 {
  %1 = alloca %struct.cbs_st, align 8
  %2 = alloca i32, align 4
  call void @llvm.lifetime.start.p0(i64 16, ptr nonnull %1) #12
  call void @CBS_init(ptr noundef nonnull %1, ptr noundef null, i64 noundef 0)
  call void @llvm.lifetime.start.p0(i64 4, ptr nonnull %2) #12
  store i32 2, ptr %2, align 4, !tbaa !6
  %3 = call i32 @CBS_get_optional_asn1_bool(ptr noundef nonnull %1, ptr noundef nonnull %2, i32 noundef 10, i32 noundef 0)
  %4 = icmp eq i32 %3, 0
  %5 = load i32, ptr %2, align 4
  %6 = icmp ne i32 %5, 0
  %or.cond = select i1 %4, i1 true, i1 %6
  br i1 %or.cond, label %19, label %7

7:                                                ; preds = %0
  call void @CBS_init(ptr noundef nonnull %1, ptr noundef nonnull @_ZZL23TestGetOptionalASN1BoolvE5kTrue, i64 noundef 5)
  store i32 2, ptr %2, align 4, !tbaa !6
  %8 = call i32 @CBS_get_optional_asn1_bool(ptr noundef nonnull %1, ptr noundef nonnull %2, i32 noundef 10, i32 noundef 0)
  %9 = icmp eq i32 %8, 0
  %10 = load i32, ptr %2, align 4
  %11 = icmp ne i32 %10, 1
  %or.cond3 = select i1 %9, i1 true, i1 %11
  br i1 %or.cond3, label %19, label %12

12:                                               ; preds = %7
  call void @CBS_init(ptr noundef nonnull %1, ptr noundef nonnull @_ZZL23TestGetOptionalASN1BoolvE6kFalse, i64 noundef 5)
  store i32 2, ptr %2, align 4, !tbaa !6
  %13 = call i32 @CBS_get_optional_asn1_bool(ptr noundef nonnull %1, ptr noundef nonnull %2, i32 noundef 10, i32 noundef 1)
  %14 = icmp eq i32 %13, 0
  %15 = load i32, ptr %2, align 4
  %16 = icmp ne i32 %15, 0
  %or.cond5 = select i1 %14, i1 true, i1 %16
  br i1 %or.cond5, label %19, label %17

17:                                               ; preds = %12
  call void @CBS_init(ptr noundef nonnull %1, ptr noundef nonnull @_ZZL23TestGetOptionalASN1BoolvE8kInvalid, i64 noundef 5)
  %18 = call i32 @CBS_get_optional_asn1_bool(ptr noundef nonnull %1, ptr noundef nonnull %2, i32 noundef 10, i32 noundef 1)
  %.not = icmp eq i32 %18, 0
  br label %19

19:                                               ; preds = %17, %12, %7, %0
  %.0 = phi i1 [ false, %0 ], [ false, %7 ], [ false, %12 ], [ %.not, %17 ]
  call void @llvm.lifetime.end.p0(i64 4, ptr nonnull %2) #12
  call void @llvm.lifetime.end.p0(i64 16, ptr nonnull %1) #12
  ret i1 %.0
}